; ModuleID = 'source-C-CXX/55/331.c'
source_filename = "source-C-CXX/55/331.c"
target datalayout = "e-m:e-p270:32:32-p271:32:32-p272:64:64-i64:64-f80:128-n8:16:32:64-S128"
target triple = "x86_64-pc-linux-gnu"

@.str = private unnamed_addr constant [3 x i8] c"%d\00", align 1
@.str.1 = private unnamed_addr constant [12 x i8] c"%d%d%d%d%d\0A\00", align 1
@.str.2 = private unnamed_addr constant [10 x i8] c"%d%d%d%d\0A\00", align 1
@.str.3 = private unnamed_addr constant [8 x i8] c"%d%d%d\0A\00", align 1
@.str.4 = private unnamed_addr constant [6 x i8] c"%d%d\0A\00", align 1
@.str.5 = private unnamed_addr constant [4 x i8] c"%d\0A\00", align 1

; Function Attrs: nofree nounwind sspstrong uwtable
define dso_local i32 @main() local_unnamed_addr #0 {
  %1 = alloca i32, align 4
  %2 = bitcast i32* %1 to i8*
  call void @llvm.lifetime.start.p0i8(i64 4, i8* nonnull %2) #3
  %3 = call i32 (i8*, ...) @__isoc99_scanf(i8* getelementptr inbounds ([3 x i8], [3 x i8]* @.str, i64 0, i64 0), i32* nonnull %1)
  %4 = load i32, i32* %1, align 4, !tbaa !5
  %5 = sdiv i32 %4, 10000
  %6 = mul nsw i32 %5, -10000
  %7 = add i32 %6, %4
  %8 = sdiv i32 %7, 1000
  %9 = mul nsw i32 %8, -1000
  %10 = add i32 %9, %7
  %11 = sdiv i32 %10, 100
  %12 = mul nsw i32 %11, -100
  %13 = add i32 %12, %10
  %14 = sdiv i32 %13, 10
  %15 = mul nsw i32 %14, -10
  %16 = add i32 %15, %13
  %17 = icmp sgt i32 %4, 9999
  br i1 %17, label %18, label %20

18:                                               ; preds = %0
  %19 = call i32 (i8*, ...) @printf(i8* nonnull dereferenceable(1) getelementptr inbounds ([12 x i8], [12 x i8]* @.str.1, i64 0, i64 0), i32 %16, i32 %14, i32 %11, i32 %8, i32 %5)
  br label %34

20:                                               ; preds = %0
  %21 = icmp sgt i32 %4, 999
  br i1 %21, label %22, label %24

22:                                               ; preds = %20
  %23 = call i32 (i8*, ...) @printf(i8* nonnull dereferenceable(1) getelementptr inbounds ([10 x i8], [10 x i8]* @.str.2, i64 0, i64 0), i32 %16, i32 %14, i32 %11, i32 %8)
  br label %34

24:                                               ; preds = %20
  %25 = icmp sgt i32 %4, 99
  br i1 %25, label %26, label %28

26:                                               ; preds = %24
  %27 = call i32 (i8*, ...) @printf(i8* nonnull dereferenceable(1) getelementptr inbounds ([8 x i8], [8 x i8]* @.str.3, i64 0, i64 0), i32 %16, i32 %14, i32 %11)
  br label %34

28:                                               ; preds = %24
  %29 = icmp sgt i32 %4, 9
  br i1 %29, label %30, label %32

30:                                               ; preds = %28
  %31 = call i32 (i8*, ...) @printf(i8* nonnull dereferenceable(1) getelementptr inbounds ([6 x i8], [6 x i8]* @.str.4, i64 0, i64 0), i32 %16, i32 %14)
  br label %34

32:                                               ; preds = %28
  %33 = call i32 (i8*, ...) @printf(i8* nonnull dereferenceable(1) getelementptr inbounds ([4 x i8], [4 x i8]* @.str.5, i64 0, i64 0), i32 %16)
  br label %34

34:                                               ; preds = %22, %30, %32, %26, %18
  call void @llvm.lifetime.end.p0i8(i64 4, i8* nonnull %2) #3
  ret i32 0
}

; Function Attrs: argmemonly mustprogress nofree nosync nounwind willreturn
declare void @llvm.lifetime.start.p0i8(i64 immarg, i8* nocapture) #1

; Function Attrs: nofree nounwind
declare noundef i32 @__isoc99_scanf(i8* nocapture noundef readonly, ...) local_unnamed_addr #2

; Function Attrs: nofree nounwind
declare noundef i32 @printf(i8* nocapture noundef readonly, ...) local_unnamed_addr #2

; Function Attrs: argmemonly mustprogress nofree nosync nounwind willreturn
declare void @llvm.lifetime.end.p0i8(i64 immarg, i8* nocapture) #1


!llvm.module.flags = !{!0, !1, !2, !3}
!llvm.ident = !{!4}

!0 = !{i32 1, !"wchar_size", i32 4}
!1 = !{i32 7, !"PIC Level", i32 2}
!2 = !{i32 7, !"PIE Level", i32 2}
!3 = !{i32 7, !"uwtable", i32 1}
!4 = !{!"clang version 13.0.0"}
!5 = !{!6, !6, i64 0}
!6 = !{!"int", !7, i64 0}
!7 = !{!"omnipotent char", !8, i64 0}
!8 = !{!"Simple C/C++ TBAA"}
